; Function Attrs: mustprogress norecurse uwtable
define internal fastcc noundef zeroext i1 @_ZL12DoBerConvertPKcPKhmS2_m(ptr noundef %0, ptr noundef readonly captures(none) %1, i64 noundef range(i64 3, 86) %2, ptr noundef %3, i64 noundef range(i64 3, 96) %4) unnamed_addr #0 personality ptr @__gxx_personality_v0 {
  %6 = alloca %struct.cbs_st, align 8
  %7 = alloca ptr, align 8
  %8 = alloca i64, align 8
  call void @llvm.lifetime.start.p0(i64 16, ptr nonnull %6) #12
  call void @llvm.lifetime.start.p0(i64 8, ptr nonnull %7) #12
  call void @llvm.lifetime.start.p0(i64 8, ptr nonnull %8) #12
  call void @CBS_init(ptr noundef nonnull %6, ptr noundef %3, i64 noundef %4)
  %9 = call i32 @CBS_asn1_ber_to_der(ptr noundef nonnull %6, ptr noundef nonnull %7, ptr noundef nonnull %8)
  %.not = icmp eq i32 %9, 0
  br i1 %.not, label %10, label %13

10:                                               ; preds = %5
  %11 = load ptr, ptr @stderr, align 8, !tbaa !16
  %12 = call i32 (ptr, ptr, ...) @fprintf(ptr noundef %11, ptr noundef nonnull @.str.17, ptr noundef %0) #17
  br label %_ZNSt10unique_ptrIh11OpenSSLFreeIhEED2Ev.exit

13:                                               ; preds = %5
  %14 = load ptr, ptr %7, align 8, !tbaa !11
  %15 = icmp eq ptr %14, null
  br i1 %15, label %16, label %21

16:                                               ; preds = %13
  %.not18 = icmp eq i64 %4, %2
  br i1 %.not18, label %17, label %18

17:                                               ; preds = %16
  %bcmp19 = call i32 @bcmp(ptr noundef nonnull dereferenceable(1) %1, ptr noundef nonnull dereferenceable(1) %3, i64 %2)
  %.not20 = icmp eq i32 %bcmp19, 0
  br i1 %.not20, label %_ZNSt10unique_ptrIh11OpenSSLFreeIhEED2Ev.exit, label %18

18:                                               ; preds = %17, %16
  %19 = load ptr, ptr @stderr, align 8, !tbaa !16
  %20 = call i32 (ptr, ptr, ...) @fprintf(ptr noundef %19, ptr noundef nonnull @.str.18, ptr noundef %0) #17
  br label %_ZNSt10unique_ptrIh11OpenSSLFreeIhEED2Ev.exit

21:                                               ; preds = %13
  %22 = load i64, ptr %8, align 8, !tbaa !14
  %.not16 = icmp eq i64 %22, %2
  br i1 %.not16, label %23, label %24

23:                                               ; preds = %21
  %bcmp = call i32 @bcmp(ptr noundef nonnull dereferenceable(1) %14, ptr noundef nonnull dereferenceable(1) %1, i64 %2)
  %.not17 = icmp eq i32 %bcmp, 0
  br i1 %.not17, label %27, label %24

24:                                               ; preds = %23, %21
  %25 = load ptr, ptr @stderr, align 8, !tbaa !16
  %26 = call i32 (ptr, ptr, ...) @fprintf(ptr noundef %25, ptr noundef nonnull @.str.19, ptr noundef %0) #17
  br label %27

27:                                               ; preds = %24, %23
  %.1 = phi i1 [ false, %24 ], [ true, %23 ]
  call void @free(ptr noundef nonnull %14) #12
  br label %_ZNSt10unique_ptrIh11OpenSSLFreeIhEED2Ev.exit

_ZNSt10unique_ptrIh11OpenSSLFreeIhEED2Ev.exit:    ; preds = %18, %17, %27, %10
  %.0 = phi i1 [ false, %10 ], [ %.1, %27 ], [ true, %17 ], [ false, %18 ]
  call void @llvm.lifetime.end.p0(i64 8, ptr nonnull %8) #12
  call void @llvm.lifetime.end.p0(i64 8, ptr nonnull %7) #12
  call void @llvm.lifetime.end.p0(i64 16, ptr nonnull %6) #12
  ret i1 %.0
}